target datalayout = "e-m:e-p270:32:32-p271:32:32-p272:64:64-i64:64-i128:128-f80:128-n8:16:32:64-S128"
target triple = "x86_64-pc-linux-gnu"

%struct.AVSliceThread = type { ptr, i32, i32, i32, i32, i32, %union.pthread_mutex_t, %union.pthread_cond_t, i32, i32, ptr, ptr, ptr }
%union.pthread_mutex_t = type { %struct.__pthread_mutex_s }
%struct.__pthread_mutex_s = type { i32, i32, i32, i32, i32, i16, i16, %struct.__pthread_internal_list }
%struct.__pthread_internal_list = type { ptr, ptr }
%union.pthread_cond_t = type { %struct.__pthread_cond_s }
%struct.__pthread_cond_s = type { %union.__atomic_wide_counter, %union.__atomic_wide_counter, [2 x i32], [2 x i32], i32, i32, [2 x i32] }
%union.__atomic_wide_counter = type { i64 }
%struct.WorkerContext = type { ptr, %union.pthread_mutex_t, %union.pthread_cond_t, i64, i32 }

@.str = private unnamed_addr constant [30 x i8] c"Assertion %s failed at %s:%d\0A\00", align 1
@.str.1 = private unnamed_addr constant [16 x i8] c"nb_threads >= 0\00", align 1
@.str.2 = private unnamed_addr constant [24 x i8] c"libavutil/slicethread.c\00", align 1

; Function Attrs: cold nounwind optsize uwtable
define i32 @avpriv_slicethread_create(ptr noundef %0, ptr noundef %1, ptr noundef %2, ptr noundef %3, i32 noundef %4) #0 {
  %6 = alloca i32, align 4
  %7 = alloca ptr, align 8
  %8 = alloca ptr, align 8
  %9 = alloca ptr, align 8
  %10 = alloca ptr, align 8
  %11 = alloca i32, align 4
  %12 = alloca ptr, align 8
  %13 = alloca i32, align 4
  %14 = alloca i32, align 4
  %15 = alloca i32, align 4
  %16 = alloca i32, align 4
  %17 = alloca i32, align 4
  %18 = alloca ptr, align 8
  %19 = alloca i32, align 4
  store ptr %0, ptr %7, align 8, !tbaa !4
  store ptr %1, ptr %8, align 8, !tbaa !10
  store ptr %2, ptr %9, align 8, !tbaa !10
  store ptr %3, ptr %10, align 8, !tbaa !10
  store i32 %4, ptr %11, align 4, !tbaa !11
  call void @llvm.lifetime.start.p0(i64 8, ptr %12) #6
  call void @llvm.lifetime.start.p0(i64 4, ptr %13) #6
  call void @llvm.lifetime.start.p0(i64 4, ptr %14) #6
  call void @llvm.lifetime.start.p0(i64 4, ptr %15) #6
  br label %20

20:                                               ; preds = %5
  %21 = load i32, ptr %11, align 4, !tbaa !11
  %22 = icmp sge i32 %21, 0
  br i1 %22, label %24, label %23

23:                                               ; preds = %20
  call void (ptr, i32, ptr, ...) @av_log(ptr noundef null, i32 noundef 0, ptr noundef @.str, ptr noundef @.str.1, ptr noundef @.str.2, i32 noundef 108)
  call void @abort() #7
  unreachable

24:                                               ; preds = %20
  br label %25

25:                                               ; preds = %24
  br label %26

26:                                               ; preds = %25
  %27 = load i32, ptr %11, align 4, !tbaa !11
  %28 = icmp ne i32 %27, 0
  br i1 %28, label %45, label %29

29:                                               ; preds = %26
  call void @llvm.lifetime.start.p0(i64 4, ptr %16) #6
  %30 = call i32 @av_cpu_count()
  store i32 %30, ptr %16, align 4, !tbaa !11
  %31 = load i32, ptr %16, align 4, !tbaa !11
  %32 = icmp sgt i32 %31, 1
  br i1 %32, label %33, label %43

33:                                               ; preds = %29
  %34 = load i32, ptr %16, align 4, !tbaa !11
  %35 = add nsw i32 %34, 1
  %36 = icmp sgt i32 %35, 16
  br i1 %36, label %37, label %38

37:                                               ; preds = %33
  br label %41

38:                                               ; preds = %33
  %39 = load i32, ptr %16, align 4, !tbaa !11
  %40 = add nsw i32 %39, 1
  br label %41

41:                                               ; preds = %38, %37
  %42 = phi i32 [ 16, %37 ], [ %40, %38 ]
  store i32 %42, ptr %11, align 4, !tbaa !11
  br label %44

43:                                               ; preds = %29
  store i32 1, ptr %11, align 4, !tbaa !11
  br label %44

44:                                               ; preds = %43, %41
  call void @llvm.lifetime.end.p0(i64 4, ptr %16) #6
  br label %45

45:                                               ; preds = %44, %26
  %46 = load i32, ptr %11, align 4, !tbaa !11
  store i32 %46, ptr %13, align 4, !tbaa !11
  %47 = load ptr, ptr %10, align 8, !tbaa !10
  %48 = icmp ne ptr %47, null
  br i1 %48, label %52, label %49

49:                                               ; preds = %45
  %50 = load i32, ptr %13, align 4, !tbaa !11
  %51 = add nsw i32 %50, -1
  store i32 %51, ptr %13, align 4, !tbaa !11
  br label %52

52:                                               ; preds = %49, %45
  %53 = call noalias ptr @av_mallocz(i64 noundef 152)
  store ptr %53, ptr %12, align 8, !tbaa !13
  %54 = load ptr, ptr %7, align 8, !tbaa !4
  store ptr %53, ptr %54, align 8, !tbaa !13
  %55 = load ptr, ptr %12, align 8, !tbaa !13
  %56 = icmp ne ptr %55, null
  br i1 %56, label %58, label %57

57:                                               ; preds = %52
  store i32 -12, ptr %6, align 4
  store i32 1, ptr %17, align 4
  br label %240

58:                                               ; preds = %52
  %59 = load i32, ptr %13, align 4, !tbaa !11
  %60 = icmp ne i32 %59, 0
  br i1 %60, label %61, label %70

61:                                               ; preds = %58
  %62 = load i32, ptr %13, align 4, !tbaa !11
  %63 = sext i32 %62 to i64
  %64 = call noalias ptr @av_calloc(i64 noundef %63, i64 noundef 112)
  %65 = load ptr, ptr %12, align 8, !tbaa !13
  %66 = getelementptr inbounds nuw %struct.AVSliceThread, ptr %65, i32 0, i32 0
  store ptr %64, ptr %66, align 8, !tbaa !15
  %67 = icmp ne ptr %64, null
  br i1 %67, label %70, label %68

68:                                               ; preds = %61
  %69 = load ptr, ptr %7, align 8, !tbaa !4
  call void @av_freep(ptr noundef %69)
  store i32 -12, ptr %6, align 4
  store i32 1, ptr %17, align 4
  br label %240

70:                                               ; preds = %61, %58
  %71 = load ptr, ptr %8, align 8, !tbaa !10
  %72 = load ptr, ptr %12, align 8, !tbaa !13
  %73 = getelementptr inbounds nuw %struct.AVSliceThread, ptr %72, i32 0, i32 10
  store ptr %71, ptr %73, align 8, !tbaa !18
  %74 = load ptr, ptr %9, align 8, !tbaa !10
  %75 = load ptr, ptr %12, align 8, !tbaa !13
  %76 = getelementptr inbounds nuw %struct.AVSliceThread, ptr %75, i32 0, i32 11
  store ptr %74, ptr %76, align 8, !tbaa !19
  %77 = load ptr, ptr %10, align 8, !tbaa !10
  %78 = load ptr, ptr %12, align 8, !tbaa !13
  %79 = getelementptr inbounds nuw %struct.AVSliceThread, ptr %78, i32 0, i32 12
  store ptr %77, ptr %79, align 8, !tbaa !20
  %80 = load i32, ptr %11, align 4, !tbaa !11
  %81 = load ptr, ptr %12, align 8, !tbaa !13
  %82 = getelementptr inbounds nuw %struct.AVSliceThread, ptr %81, i32 0, i32 1
  store i32 %80, ptr %82, align 8, !tbaa !21
  %83 = load ptr, ptr %12, align 8, !tbaa !13
  %84 = getelementptr inbounds nuw %struct.AVSliceThread, ptr %83, i32 0, i32 2
  store i32 0, ptr %84, align 4, !tbaa !22
  %85 = load ptr, ptr %12, align 8, !tbaa !13
  %86 = getelementptr inbounds nuw %struct.AVSliceThread, ptr %85, i32 0, i32 3
  store i32 0, ptr %86, align 8, !tbaa !23
  %87 = load ptr, ptr %12, align 8, !tbaa !13
  %88 = getelementptr inbounds nuw %struct.AVSliceThread, ptr %87, i32 0, i32 9
  store i32 0, ptr %88, align 4, !tbaa !24
  %89 = load ptr, ptr %12, align 8, !tbaa !13
  %90 = getelementptr inbounds nuw %struct.AVSliceThread, ptr %89, i32 0, i32 4
  store i32 0, ptr %90, align 4, !tbaa !25
  %91 = load ptr, ptr %12, align 8, !tbaa !13
  %92 = getelementptr inbounds nuw %struct.AVSliceThread, ptr %91, i32 0, i32 5
  store i32 0, ptr %92, align 4, !tbaa !25
  %93 = load ptr, ptr %12, align 8, !tbaa !13
  %94 = getelementptr inbounds nuw %struct.AVSliceThread, ptr %93, i32 0, i32 6
  %95 = call i32 @pthread_mutex_init(ptr noundef %94, ptr noundef null) #6
  store i32 %95, ptr %15, align 4, !tbaa !11
  %96 = load i32, ptr %15, align 4, !tbaa !11
  %97 = icmp ne i32 %96, 0
  br i1 %97, label %98, label %104

98:                                               ; preds = %70
  %99 = load ptr, ptr %12, align 8, !tbaa !13
  %100 = getelementptr inbounds nuw %struct.AVSliceThread, ptr %99, i32 0, i32 0
  call void @av_freep(ptr noundef %100)
  %101 = load ptr, ptr %7, align 8, !tbaa !4
  call void @av_freep(ptr noundef %101)
  %102 = load i32, ptr %15, align 4, !tbaa !11
  %103 = sub nsw i32 0, %102
  store i32 %103, ptr %6, align 4
  store i32 1, ptr %17, align 4
  br label %240

104:                                              ; preds = %70
  %105 = load ptr, ptr %12, align 8, !tbaa !13
  %106 = getelementptr inbounds nuw %struct.AVSliceThread, ptr %105, i32 0, i32 7
  %107 = call i32 @pthread_cond_init(ptr noundef %106, ptr noundef null) #6
  store i32 %107, ptr %15, align 4, !tbaa !11
  %108 = load i32, ptr %15, align 4, !tbaa !11
  %109 = icmp ne i32 %108, 0
  br i1 %109, label %110, label %119

110:                                              ; preds = %104
  %111 = load ptr, ptr %10, align 8, !tbaa !10
  %112 = icmp ne ptr %111, null
  %113 = select i1 %112, i32 0, i32 1
  %114 = load ptr, ptr %12, align 8, !tbaa !13
  %115 = getelementptr inbounds nuw %struct.AVSliceThread, ptr %114, i32 0, i32 1
  store i32 %113, ptr %115, align 8, !tbaa !21
  %116 = load ptr, ptr %7, align 8, !tbaa !4
  call void @avpriv_slicethread_free(ptr noundef %116)
  %117 = load i32, ptr %15, align 4, !tbaa !11
  %118 = sub nsw i32 0, %117
  store i32 %118, ptr %6, align 4
  store i32 1, ptr %17, align 4
  br label %240

119:                                              ; preds = %104
  %120 = load ptr, ptr %12, align 8, !tbaa !13
  %121 = getelementptr inbounds nuw %struct.AVSliceThread, ptr %120, i32 0, i32 8
  store i32 0, ptr %121, align 8, !tbaa !26
  store i32 0, ptr %14, align 4, !tbaa !11
  br label %122

122:                                              ; preds = %235, %119
  %123 = load i32, ptr %14, align 4, !tbaa !11
  %124 = load i32, ptr %13, align 4, !tbaa !11
  %125 = icmp slt i32 %123, %124
  br i1 %125, label %126, label %238

126:                                              ; preds = %122
  call void @llvm.lifetime.start.p0(i64 8, ptr %18) #6
  %127 = load ptr, ptr %12, align 8, !tbaa !13
  %128 = getelementptr inbounds nuw %struct.AVSliceThread, ptr %127, i32 0, i32 0
  %129 = load ptr, ptr %128, align 8, !tbaa !15
  %130 = load i32, ptr %14, align 4, !tbaa !11
  %131 = sext i32 %130 to i64
  %132 = getelementptr inbounds %struct.WorkerContext, ptr %129, i64 %131
  store ptr %132, ptr %18, align 8, !tbaa !27
  call void @llvm.lifetime.start.p0(i64 4, ptr %19) #6
  %133 = load ptr, ptr %12, align 8, !tbaa !13
  %134 = load ptr, ptr %18, align 8, !tbaa !27
  %135 = getelementptr inbounds nuw %struct.WorkerContext, ptr %134, i32 0, i32 0
  store ptr %133, ptr %135, align 8, !tbaa !28
  %136 = load ptr, ptr %18, align 8, !tbaa !27
  %137 = getelementptr inbounds nuw %struct.WorkerContext, ptr %136, i32 0, i32 1
  %138 = call i32 @pthread_mutex_init(ptr noundef %137, ptr noundef null) #6
  store i32 %138, ptr %19, align 4, !tbaa !11
  %139 = load i32, ptr %19, align 4, !tbaa !11
  %140 = icmp ne i32 %139, 0
  br i1 %140, label %141, label %156

141:                                              ; preds = %126
  %142 = load ptr, ptr %10, align 8, !tbaa !10
  %143 = icmp ne ptr %142, null
  br i1 %143, label %144, label %146

144:                                              ; preds = %141
  %145 = load i32, ptr %14, align 4, !tbaa !11
  br label %149

146:                                              ; preds = %141
  %147 = load i32, ptr %14, align 4, !tbaa !11
  %148 = add nsw i32 %147, 1
  br label %149

149:                                              ; preds = %146, %144
  %150 = phi i32 [ %145, %144 ], [ %148, %146 ]
  %151 = load ptr, ptr %12, align 8, !tbaa !13
  %152 = getelementptr inbounds nuw %struct.AVSliceThread, ptr %151, i32 0, i32 1
  store i32 %150, ptr %152, align 8, !tbaa !21
  %153 = load ptr, ptr %7, align 8, !tbaa !4
  call void @avpriv_slicethread_free(ptr noundef %153)
  %154 = load i32, ptr %19, align 4, !tbaa !11
  %155 = sub nsw i32 0, %154
  store i32 %155, ptr %6, align 4
  store i32 1, ptr %17, align 4
  br label %232

156:                                              ; preds = %126
  %157 = load ptr, ptr %18, align 8, !tbaa !27
  %158 = getelementptr inbounds nuw %struct.WorkerContext, ptr %157, i32 0, i32 2
  %159 = call i32 @pthread_cond_init(ptr noundef %158, ptr noundef null) #6
  store i32 %159, ptr %19, align 4, !tbaa !11
  %160 = load i32, ptr %19, align 4, !tbaa !11
  %161 = icmp ne i32 %160, 0
  br i1 %161, label %162, label %180

162:                                              ; preds = %156
  %163 = load ptr, ptr %18, align 8, !tbaa !27
  %164 = getelementptr inbounds nuw %struct.WorkerContext, ptr %163, i32 0, i32 1
  %165 = call i32 @pthread_mutex_destroy(ptr noundef %164) #6
  %166 = load ptr, ptr %10, align 8, !tbaa !10
  %167 = icmp ne ptr %166, null
  br i1 %167, label %168, label %170

168:                                              ; preds = %162
  %169 = load i32, ptr %14, align 4, !tbaa !11
  br label %173

170:                                              ; preds = %162
  %171 = load i32, ptr %14, align 4, !tbaa !11
  %172 = add nsw i32 %171, 1
  br label %173

173:                                              ; preds = %170, %168
  %174 = phi i32 [ %169, %168 ], [ %172, %170 ]
  %175 = load ptr, ptr %12, align 8, !tbaa !13
  %176 = getelementptr inbounds nuw %struct.AVSliceThread, ptr %175, i32 0, i32 1
  store i32 %174, ptr %176, align 8, !tbaa !21
  %177 = load ptr, ptr %7, align 8, !tbaa !4
  call void @avpriv_slicethread_free(ptr noundef %177)
  %178 = load i32, ptr %19, align 4, !tbaa !11
  %179 = sub nsw i32 0, %178
  store i32 %179, ptr %6, align 4
  store i32 1, ptr %17, align 4
  br label %232

180:                                              ; preds = %156
  %181 = load ptr, ptr %18, align 8, !tbaa !27
  %182 = getelementptr inbounds nuw %struct.WorkerContext, ptr %181, i32 0, i32 1
  %183 = call i32 @pthread_mutex_lock(ptr noundef %182) #6
  %184 = load ptr, ptr %18, align 8, !tbaa !27
  %185 = getelementptr inbounds nuw %struct.WorkerContext, ptr %184, i32 0, i32 4
  store i32 0, ptr %185, align 8, !tbaa !31
  %186 = load ptr, ptr %18, align 8, !tbaa !27
  %187 = getelementptr inbounds nuw %struct.WorkerContext, ptr %186, i32 0, i32 3
  %188 = load ptr, ptr %18, align 8, !tbaa !27
  %189 = call i32 @pthread_create(ptr noundef %187, ptr noundef null, ptr noundef @thread_worker, ptr noundef %188) #6
  store i32 %189, ptr %19, align 4, !tbaa !11
  %190 = icmp ne i32 %189, 0
  br i1 %190, label %191, label %215

191:                                              ; preds = %180
  %192 = load ptr, ptr %10, align 8, !tbaa !10
  %193 = icmp ne ptr %192, null
  br i1 %193, label %194, label %196

194:                                              ; preds = %191
  %195 = load i32, ptr %14, align 4, !tbaa !11
  br label %199

196:                                              ; preds = %191
  %197 = load i32, ptr %14, align 4, !tbaa !11
  %198 = add nsw i32 %197, 1
  br label %199

199:                                              ; preds = %196, %194
  %200 = phi i32 [ %195, %194 ], [ %198, %196 ]
  %201 = load ptr, ptr %12, align 8, !tbaa !13
  %202 = getelementptr inbounds nuw %struct.AVSliceThread, ptr %201, i32 0, i32 1
  store i32 %200, ptr %202, align 8, !tbaa !21
  %203 = load ptr, ptr %18, align 8, !tbaa !27
  %204 = getelementptr inbounds nuw %struct.WorkerContext, ptr %203, i32 0, i32 1
  %205 = call i32 @pthread_mutex_unlock(ptr noundef %204) #6
  %206 = load ptr, ptr %18, align 8, !tbaa !27
  %207 = getelementptr inbounds nuw %struct.WorkerContext, ptr %206, i32 0, i32 2
  %208 = call i32 @pthread_cond_destroy(ptr noundef %207) #6
  %209 = load ptr, ptr %18, align 8, !tbaa !27
  %210 = getelementptr inbounds nuw %struct.WorkerContext, ptr %209, i32 0, i32 1
  %211 = call i32 @pthread_mutex_destroy(ptr noundef %210) #6
  %212 = load ptr, ptr %7, align 8, !tbaa !4
  call void @avpriv_slicethread_free(ptr noundef %212)
  %213 = load i32, ptr %19, align 4, !tbaa !11
  %214 = sub nsw i32 0, %213
  store i32 %214, ptr %6, align 4
  store i32 1, ptr %17, align 4
  br label %232

215:                                              ; preds = %180
  br label %216

216:                                              ; preds = %222, %215
  %217 = load ptr, ptr %18, align 8, !tbaa !27
  %218 = getelementptr inbounds nuw %struct.WorkerContext, ptr %217, i32 0, i32 4
  %219 = load i32, ptr %218, align 8, !tbaa !31
  %220 = icmp ne i32 %219, 0
  %221 = xor i1 %220, true
  br i1 %221, label %222, label %228

222:                                              ; preds = %216
  %223 = load ptr, ptr %18, align 8, !tbaa !27
  %224 = getelementptr inbounds nuw %struct.WorkerContext, ptr %223, i32 0, i32 2
  %225 = load ptr, ptr %18, align 8, !tbaa !27
  %226 = getelementptr inbounds nuw %struct.WorkerContext, ptr %225, i32 0, i32 1
  %227 = call i32 @pthread_cond_wait(ptr noundef %224, ptr noundef %226)
  br label %216, !llvm.loop !32

228:                                              ; preds = %216
  %229 = load ptr, ptr %18, align 8, !tbaa !27
  %230 = getelementptr inbounds nuw %struct.WorkerContext, ptr %229, i32 0, i32 1
  %231 = call i32 @pthread_mutex_unlock(ptr noundef %230) #6
  store i32 0, ptr %17, align 4
  br label %232

232:                                              ; preds = %228, %199, %173, %149
  call void @llvm.lifetime.end.p0(i64 4, ptr %19) #6
  call void @llvm.lifetime.end.p0(i64 8, ptr %18) #6
  %233 = load i32, ptr %17, align 4
  switch i32 %233, label %240 [
    i32 0, label %234
  ]

234:                                              ; preds = %232
  br label %235

235:                                              ; preds = %234
  %236 = load i32, ptr %14, align 4, !tbaa !11
  %237 = add nsw i32 %236, 1
  store i32 %237, ptr %14, align 4, !tbaa !11
  br label %122, !llvm.loop !34

238:                                              ; preds = %122
  %239 = load i32, ptr %11, align 4, !tbaa !11
  store i32 %239, ptr %6, align 4
  store i32 1, ptr %17, align 4
  br label %240

240:                                              ; preds = %238, %232, %110, %98, %68, %57
  call void @llvm.lifetime.end.p0(i64 4, ptr %15) #6
  call void @llvm.lifetime.end.p0(i64 4, ptr %14) #6
  call void @llvm.lifetime.end.p0(i64 4, ptr %13) #6
  call void @llvm.lifetime.end.p0(i64 8, ptr %12) #6
  %241 = load i32, ptr %6, align 4
  ret i32 %241
}