; Function Attrs: cold nounwind optsize uwtable
define i32 @avpriv_slicethread_create(ptr noundef %0, ptr noundef %1, ptr noundef %2, ptr noundef %3, i32 noundef %4) local_unnamed_addr #0 {
  %6 = icmp sgt i32 %4, -1
  br i1 %6, label %8, label %7

7:                                                ; preds = %5
  tail call void (ptr, i32, ptr, ...) @av_log(ptr noundef null, i32 noundef 0, ptr noundef nonnull @.str, ptr noundef nonnull @.str.1, ptr noundef nonnull @.str.2, i32 noundef 108) #7
  tail call void @abort() #8
  unreachable

8:                                                ; preds = %5
  %.not = icmp eq i32 %4, 0
  br i1 %.not, label %9, label %14

9:                                                ; preds = %8
  %10 = tail call i32 @av_cpu_count() #7
  %11 = icmp sgt i32 %10, 1
  %12 = tail call i32 @llvm.smin.i32(i32 %10, i32 15)
  %13 = add nuw nsw i32 %12, 1
  %.184 = select i1 %11, i32 %13, i32 1
  br label %14

14:                                               ; preds = %9, %8
  %.083 = phi i32 [ %4, %8 ], [ %.184, %9 ]
  %.not95 = icmp eq ptr %3, null
  %15 = sext i1 %.not95 to i32
  %spec.select = add nsw i32 %.083, %15
  %16 = tail call noalias ptr @av_mallocz(i64 noundef 152) #7
  store ptr %16, ptr %0, align 8, !tbaa !4
  %.not96 = icmp eq ptr %16, null
  br i1 %.not96, label %.thread, label %17

17:                                               ; preds = %14
  %.not97 = icmp eq i32 %spec.select, 0
  br i1 %.not97, label %22, label %18

18:                                               ; preds = %17
  %19 = zext nneg i32 %spec.select to i64
  %20 = tail call noalias ptr @av_calloc(i64 noundef %19, i64 noundef 112) #7
  store ptr %20, ptr %16, align 8, !tbaa !9
  %.not98 = icmp eq ptr %20, null
  br i1 %.not98, label %21, label %22

21:                                               ; preds = %18
  tail call void @av_freep(ptr noundef nonnull %0) #7
  br label %.thread

22:                                               ; preds = %18, %17
  %23 = getelementptr inbounds nuw i8, ptr %16, i64 128
  store ptr %1, ptr %23, align 8, !tbaa !13
  %24 = getelementptr inbounds nuw i8, ptr %16, i64 136
  store ptr %2, ptr %24, align 8, !tbaa !14
  %25 = getelementptr inbounds nuw i8, ptr %16, i64 144
  store ptr %3, ptr %25, align 8, !tbaa !15
  %26 = getelementptr inbounds nuw i8, ptr %16, i64 8
  store i32 %.083, ptr %26, align 8, !tbaa !16
  %27 = getelementptr inbounds nuw i8, ptr %16, i64 12
  %28 = getelementptr inbounds nuw i8, ptr %16, i64 124
  store i32 0, ptr %28, align 4, !tbaa !17
  %29 = getelementptr inbounds nuw i8, ptr %16, i64 32
  tail call void @llvm.memset.p0.i64(ptr noundef nonnull align 4 dereferenceable(16) %27, i8 0, i64 16, i1 false)
  %30 = tail call i32 @pthread_mutex_init(ptr noundef nonnull %29, ptr noundef null) #7
  %.not99 = icmp eq i32 %30, 0
  br i1 %.not99, label %33, label %31

31:                                               ; preds = %22
  tail call void @av_freep(ptr noundef nonnull %16) #7
  tail call void @av_freep(ptr noundef nonnull %0) #7
  %32 = sub nsw i32 0, %30
  br label %.thread

33:                                               ; preds = %22
  %34 = getelementptr inbounds nuw i8, ptr %16, i64 72
  %35 = tail call i32 @pthread_cond_init(ptr noundef nonnull %34, ptr noundef null) #7
  %.not100 = icmp eq i32 %35, 0
  br i1 %.not100, label %39, label %36

36:                                               ; preds = %33
  %37 = zext i1 %.not95 to i32
  store i32 %37, ptr %26, align 8, !tbaa !16
  tail call void @avpriv_slicethread_free(ptr noundef nonnull %0)
  %38 = sub nsw i32 0, %35
  br label %.thread

39:                                               ; preds = %33
  %40 = getelementptr inbounds nuw i8, ptr %16, i64 120
  store i32 0, ptr %40, align 8, !tbaa !18
  %41 = icmp sgt i32 %spec.select, 0
  br i1 %41, label %.lr.ph123.preheader, label %.thread

.lr.ph123.preheader:                              ; preds = %39
  %wide.trip.count = zext nneg i32 %spec.select to i64
  br label %.lr.ph123

.lr.ph123:                                        ; preds = %.lr.ph123.preheader, %._crit_edge
  %indvars.iv = phi i64 [ 0, %.lr.ph123.preheader ], [ %indvars.iv.next, %._crit_edge ]
  %42 = load ptr, ptr %16, align 8, !tbaa !9
  %43 = getelementptr inbounds nuw %struct.WorkerContext, ptr %42, i64 %indvars.iv
  store ptr %16, ptr %43, align 8, !tbaa !19
  %44 = getelementptr inbounds nuw i8, ptr %43, i64 8
  %45 = tail call i32 @pthread_mutex_init(ptr noundef nonnull %44, ptr noundef null) #7
  %.not101 = icmp eq i32 %45, 0
  br i1 %.not101, label %51, label %46

46:                                               ; preds = %.lr.ph123
  %47 = trunc nuw nsw i64 %indvars.iv to i32
  %48 = zext i1 %.not95 to i32
  %49 = add nuw nsw i32 %47, %48
  store i32 %49, ptr %26, align 8, !tbaa !16
  tail call void @avpriv_slicethread_free(ptr noundef nonnull %0)
  %50 = sub nsw i32 0, %45
  br label %.thread

51:                                               ; preds = %.lr.ph123
  %52 = getelementptr inbounds nuw i8, ptr %43, i64 48
  %53 = tail call i32 @pthread_cond_init(ptr noundef nonnull %52, ptr noundef null) #7
  %.not102 = icmp eq i32 %53, 0
  br i1 %.not102, label %60, label %54

54:                                               ; preds = %51
  %55 = trunc nuw nsw i64 %indvars.iv to i32
  %56 = tail call i32 @pthread_mutex_destroy(ptr noundef nonnull %44) #7
  %57 = zext i1 %.not95 to i32
  %58 = add nuw nsw i32 %55, %57
  store i32 %58, ptr %26, align 8, !tbaa !16
  tail call void @avpriv_slicethread_free(ptr noundef nonnull %0)
  %59 = sub nsw i32 0, %53
  br label %.thread

60:                                               ; preds = %51
  %61 = tail call i32 @pthread_mutex_lock(ptr noundef nonnull %44) #7
  %62 = getelementptr inbounds nuw i8, ptr %43, i64 104
  store i32 0, ptr %62, align 8, !tbaa !22
  %63 = getelementptr inbounds nuw i8, ptr %43, i64 96
  %64 = tail call i32 @pthread_create(ptr noundef nonnull %63, ptr noundef null, ptr noundef nonnull @thread_worker, ptr noundef nonnull %43) #7
  %.not103 = icmp eq i32 %64, 0
  br i1 %.not103, label %.preheader, label %66

.preheader:                                       ; preds = %60
  %65 = load i32, ptr %62, align 8, !tbaa !22
  %.not104120 = icmp eq i32 %65, 0
  br i1 %.not104120, label %.lr.ph, label %._crit_edge

66:                                               ; preds = %60
  %67 = trunc nuw nsw i64 %indvars.iv to i32
  %68 = zext i1 %.not95 to i32
  %69 = add nuw nsw i32 %67, %68
  store i32 %69, ptr %26, align 8, !tbaa !16
  %70 = tail call i32 @pthread_mutex_unlock(ptr noundef nonnull %44) #7
  %71 = tail call i32 @pthread_cond_destroy(ptr noundef nonnull %52) #7
  %72 = tail call i32 @pthread_mutex_destroy(ptr noundef nonnull %44) #7
  tail call void @avpriv_slicethread_free(ptr noundef nonnull %0)
  %73 = sub nsw i32 0, %64
  br label %.thread

.lr.ph:                                           ; preds = %.preheader, %.lr.ph
  %74 = tail call i32 @pthread_cond_wait(ptr noundef nonnull %52, ptr noundef nonnull %44) #7
  %75 = load i32, ptr %62, align 8, !tbaa !22
  %.not104 = icmp eq i32 %75, 0
  br i1 %.not104, label %.lr.ph, label %._crit_edge, !llvm.loop !23

._crit_edge:                                      ; preds = %.lr.ph, %.preheader
  %76 = tail call i32 @pthread_mutex_unlock(ptr noundef nonnull %44) #7
  %indvars.iv.next = add nuw nsw i64 %indvars.iv, 1
  %exitcond.not = icmp eq i64 %indvars.iv.next, %wide.trip.count
  br i1 %exitcond.not, label %.thread, label %.lr.ph123, !llvm.loop !25

.thread:                                          ; preds = %._crit_edge, %39, %66, %54, %46, %14, %36, %31, %21
  %.0 = phi i32 [ %32, %31 ], [ %38, %36 ], [ -12, %21 ], [ -12, %14 ], [ %73, %66 ], [ %59, %54 ], [ %50, %46 ], [ %.083, %39 ], [ %.083, %._crit_edge ]
  ret i32 %.0
}